target datalayout = "e-m:e-p270:32:32-p271:32:32-p272:64:64-i64:64-i128:128-f80:128-n8:16:32:64-S128"
target triple = "x86_64-pc-linux-gnu"

%"class.ncnn::ParamDict" = type { ptr, ptr }

; Function Attrs: mustprogress uwtable
define hidden void @_ZN4ncnn20cast_int8_to_float32ERKNS_3MatERS0_RKNS_6OptionE(ptr noundef nonnull align 8 dereferenceable(72) %0, ptr noundef nonnull align 8 dereferenceable(72) %1, ptr noundef nonnull align 8 dereferenceable(64) %2) #0 personality ptr @__gxx_personality_v0 {
  %4 = alloca ptr, align 8
  %5 = alloca ptr, align 8
  %6 = alloca ptr, align 8
  %7 = alloca ptr, align 8
  %8 = alloca %"class.ncnn::ParamDict", align 8
  %9 = alloca ptr, align 8
  %10 = alloca i32, align 4
  store ptr %0, ptr %4, align 8, !tbaa !4
  store ptr %1, ptr %5, align 8, !tbaa !4
  store ptr %2, ptr %6, align 8, !tbaa !51
  call void @llvm.lifetime.start.p0(i64 8, ptr %7) #9
  %11 = call noundef ptr @_ZN4ncnn12create_layerEi(i32 noundef 64)
  store ptr %11, ptr %7, align 8, !tbaa !39
  call void @llvm.lifetime.start.p0(i64 16, ptr %8) #9
  call void @_ZN4ncnn9ParamDictC1Ev(ptr noundef nonnull align 8 dereferenceable(16) %8)
  invoke void @_ZN4ncnn9ParamDict3setEii(ptr noundef nonnull align 8 dereferenceable(16) %8, i32 noundef 0, i32 noundef 3)
          to label %12 unwind label %50

12:                                               ; preds = %3
  invoke void @_ZN4ncnn9ParamDict3setEii(ptr noundef nonnull align 8 dereferenceable(16) %8, i32 noundef 1, i32 noundef 1)
          to label %13 unwind label %50

13:                                               ; preds = %12
  %14 = load ptr, ptr %7, align 8, !tbaa !39
  %15 = load ptr, ptr %14, align 8, !tbaa !30
  %16 = getelementptr inbounds ptr, ptr %15, i64 2
  %17 = load ptr, ptr %16, align 8
  %18 = invoke noundef i32 %17(ptr noundef nonnull align 8 dereferenceable(208) %14, ptr noundef nonnull align 8 dereferenceable(16) %8)
          to label %19 unwind label %50

19:                                               ; preds = %13
  %20 = load ptr, ptr %7, align 8, !tbaa !39
  %21 = load ptr, ptr %6, align 8, !tbaa !51
  %22 = load ptr, ptr %20, align 8, !tbaa !30
  %23 = getelementptr inbounds ptr, ptr %22, i64 4
  %24 = load ptr, ptr %23, align 8
  %25 = invoke noundef i32 %24(ptr noundef nonnull align 8 dereferenceable(208) %20, ptr noundef nonnull align 8 dereferenceable(64) %21)
          to label %26 unwind label %50

26:                                               ; preds = %19
  %27 = load ptr, ptr %7, align 8, !tbaa !39
  %28 = load ptr, ptr %4, align 8, !tbaa !4
  %29 = load ptr, ptr %5, align 8, !tbaa !4
  %30 = load ptr, ptr %6, align 8, !tbaa !51
  %31 = load ptr, ptr %27, align 8, !tbaa !30
  %32 = getelementptr inbounds ptr, ptr %31, i64 7
  %33 = load ptr, ptr %32, align 8
  %34 = invoke noundef i32 %33(ptr noundef nonnull align 8 dereferenceable(208) %27, ptr noundef nonnull align 8 dereferenceable(72) %28, ptr noundef nonnull align 8 dereferenceable(72) %29, ptr noundef nonnull align 8 dereferenceable(64) %30)
          to label %35 unwind label %50

35:                                               ; preds = %26
  %36 = load ptr, ptr %7, align 8, !tbaa !39
  %37 = load ptr, ptr %6, align 8, !tbaa !51
  %38 = load ptr, ptr %36, align 8, !tbaa !30
  %39 = getelementptr inbounds ptr, ptr %38, i64 5
  %40 = load ptr, ptr %39, align 8
  %41 = invoke noundef i32 %40(ptr noundef nonnull align 8 dereferenceable(208) %36, ptr noundef nonnull align 8 dereferenceable(64) %37)
          to label %42 unwind label %50

42:                                               ; preds = %35
  %43 = load ptr, ptr %7, align 8, !tbaa !39
  %44 = icmp eq ptr %43, null
  br i1 %44, label %49, label %45

45:                                               ; preds = %42
  %46 = load ptr, ptr %43, align 8, !tbaa !30
  %47 = getelementptr inbounds ptr, ptr %46, i64 1
  %48 = load ptr, ptr %47, align 8
  call void %48(ptr noundef nonnull align 8 dereferenceable(208) %43) #9
  br label %49

49:                                               ; preds = %45, %42
  call void @_ZN4ncnn9ParamDictD1Ev(ptr noundef nonnull align 8 dereferenceable(16) %8) #9
  call void @llvm.lifetime.end.p0(i64 16, ptr %8) #9
  call void @llvm.lifetime.end.p0(i64 8, ptr %7) #9
  ret void

50:                                               ; preds = %35, %26, %19, %13, %12, %3
  %51 = landingpad { ptr, i32 }
          cleanup
  %52 = extractvalue { ptr, i32 } %51, 0
  store ptr %52, ptr %9, align 8
  %53 = extractvalue { ptr, i32 } %51, 1
  store i32 %53, ptr %10, align 4
  call void @_ZN4ncnn9ParamDictD1Ev(ptr noundef nonnull align 8 dereferenceable(16) %8) #9
  call void @llvm.lifetime.end.p0(i64 16, ptr %8) #9
  call void @llvm.lifetime.end.p0(i64 8, ptr %7) #9
  br label %54

54:                                               ; preds = %50
  %55 = load ptr, ptr %9, align 8
  %56 = load i32, ptr %10, align 4
  %57 = insertvalue { ptr, i32 } poison, ptr %55, 0
  %58 = insertvalue { ptr, i32 } %57, i32 %56, 1
  resume { ptr, i32 } %58
}